target datalayout = "e-m:e-p270:32:32-p271:32:32-p272:64:64-i64:64-i128:128-f80:128-n8:16:32:64-S128"
target triple = "x86_64-unknown-linux-gnu"

@_ZN6icu_7520RemoveTransliteratorC1Ev = unnamed_addr alias void (ptr), ptr @_ZN6icu_7520RemoveTransliteratorC2Ev

; Function Attrs: mustprogress uwtable
define noundef ptr @_ZNK6icu_7520RemoveTransliterator5cloneEv(ptr noundef nonnull align 8 dereferenceable(84) %this) unnamed_addr #1 align 2 personality ptr @__gxx_personality_v0 {
entry:
  %this.addr = alloca ptr, align 8
  %result = alloca ptr, align 8
  %cleanup.cond = alloca i1, align 1
  %exn.slot = alloca ptr, align 8
  %ehselector.slot = alloca i32, align 4
  store ptr %this, ptr %this.addr, align 8
  %this1 = load ptr, ptr %this.addr, align 8
  %call = call noundef ptr @_ZN6icu_757UMemorynwEm(i64 noundef 88) #4
  %new.isnull = icmp eq ptr %call, null
  store i1 false, ptr %cleanup.cond, align 1
  br i1 %new.isnull, label %new.cont, label %new.notnull

new.notnull:                                      ; preds = %entry
  store i1 true, ptr %cleanup.cond, align 1
  invoke void @_ZN6icu_7520RemoveTransliteratorC1Ev(ptr noundef nonnull align 8 dereferenceable(84) %call)
          to label %invoke.cont unwind label %lpad

invoke.cont:                                      ; preds = %new.notnull
  br label %new.cont

new.cont:                                         ; preds = %invoke.cont, %entry
  %0 = phi ptr [ %call, %invoke.cont ], [ null, %entry ]
  store ptr %0, ptr %result, align 8
  %1 = load ptr, ptr %result, align 8
  %cmp = icmp ne ptr %1, null
  br i1 %cmp, label %land.lhs.true, label %if.end

land.lhs.true:                                    ; preds = %new.cont
  %call2 = call noundef ptr @_ZNK6icu_7514Transliterator9getFilterEv(ptr noundef nonnull align 8 dereferenceable(84) %this1)
  %cmp3 = icmp ne ptr %call2, null
  br i1 %cmp3, label %if.then, label %if.end

if.then:                                          ; preds = %land.lhs.true
  %2 = load ptr, ptr %result, align 8
  %call4 = call noundef ptr @_ZNK6icu_7514Transliterator9getFilterEv(ptr noundef nonnull align 8 dereferenceable(84) %this1)
  %vtable = load ptr, ptr %call4, align 8
  %vfn = getelementptr inbounds ptr, ptr %vtable, i64 3
  %3 = load ptr, ptr %vfn, align 8
  %call5 = call noundef ptr %3(ptr noundef nonnull align 8 dereferenceable(16) %call4)
  call void @_ZN6icu_7514Transliterator11adoptFilterEPNS_13UnicodeFilterE(ptr noundef nonnull align 8 dereferenceable(84) %2, ptr noundef %call5)
  br label %if.end

lpad:                                             ; preds = %new.notnull
  %4 = landingpad { ptr, i32 }
          cleanup
  %5 = extractvalue { ptr, i32 } %4, 0
  store ptr %5, ptr %exn.slot, align 8
  %6 = extractvalue { ptr, i32 } %4, 1
  store i32 %6, ptr %ehselector.slot, align 4
  %cleanup.is_active = load i1, ptr %cleanup.cond, align 1
  br i1 %cleanup.is_active, label %cleanup.action, label %cleanup.done

cleanup.action:                                   ; preds = %lpad
  call void @_ZN6icu_757UMemorydlEPv(ptr noundef %call) #4
  br label %cleanup.done

cleanup.done:                                     ; preds = %cleanup.action, %lpad
  br label %eh.resume

if.end:                                           ; preds = %if.then, %land.lhs.true, %new.cont
  %7 = load ptr, ptr %result, align 8
  ret ptr %7

eh.resume:                                        ; preds = %cleanup.done
  %exn = load ptr, ptr %exn.slot, align 8
  %sel = load i32, ptr %ehselector.slot, align 4
  %lpad.val = insertvalue { ptr, i32 } poison, ptr %exn, 0
  %lpad.val6 = insertvalue { ptr, i32 } %lpad.val, i32 %sel, 1
  resume { ptr, i32 } %lpad.val6
}