; Function Attrs: mustprogress uwtable
define noundef ptr @_ZNK6icu_7520RemoveTransliterator5cloneEv(ptr noundef nonnull align 8 dereferenceable(84) %this) unnamed_addr #1 align 2 personality ptr @__gxx_personality_v0 {
entry:
  %call = tail call noundef ptr @_ZN6icu_757UMemorynwEm(i64 noundef 88) #5
  %new.isnull = icmp eq ptr %call, null
  br i1 %new.isnull, label %if.end, label %new.notnull

new.notnull:                                      ; preds = %entry
  invoke void @_ZN6icu_7520RemoveTransliteratorC1Ev(ptr noundef nonnull align 8 dereferenceable(84) %call)
          to label %land.lhs.true unwind label %lpad

land.lhs.true:                                    ; preds = %new.notnull
  %call2 = tail call noundef ptr @_ZNK6icu_7514Transliterator9getFilterEv(ptr noundef nonnull align 8 dereferenceable(84) %this)
  %cmp3.not = icmp eq ptr %call2, null
  br i1 %cmp3.not, label %if.end, label %if.then

if.then:                                          ; preds = %land.lhs.true
  %call4 = tail call noundef ptr @_ZNK6icu_7514Transliterator9getFilterEv(ptr noundef nonnull align 8 dereferenceable(84) %this)
  %vtable = load ptr, ptr %call4, align 8
  %vfn = getelementptr inbounds i8, ptr %vtable, i64 24
  %0 = load ptr, ptr %vfn, align 8
  %call5 = tail call noundef ptr %0(ptr noundef nonnull align 8 dereferenceable(16) %call4)
  tail call void @_ZN6icu_7514Transliterator11adoptFilterEPNS_13UnicodeFilterE(ptr noundef nonnull align 8 dereferenceable(84) %call, ptr noundef %call5)
  br label %if.end

lpad:                                             ; preds = %new.notnull
  %1 = landingpad { ptr, i32 }
          cleanup
  tail call void @_ZN6icu_757UMemorydlEPv(ptr noundef nonnull %call) #5
  resume { ptr, i32 } %1

if.end:                                           ; preds = %entry, %if.then, %land.lhs.true
  ret ptr %call
}